target datalayout = "e-m:e-p270:32:32-p271:32:32-p272:64:64-i64:64-i128:128-f80:128-n8:16:32:64-S128"
target triple = "x86_64-pc-linux-gnu"

%struct.AVFormatContext = type { ptr, ptr, ptr, ptr, ptr, i32, i32, ptr, i32, ptr, i32, ptr, ptr, i64, i64, i64, i32, i32, i32, i64, i64, ptr, i32, i32, ptr, i32, i32, i32, i32, ptr, i64, i32, i32, %struct.AVIOInterruptCB, i32, i32, i32, i32, i64, i32, i32, i32, i32, i32, i32, i32, i32, i32, i32, i32, i32, i64, i32, i32, i32, i32, i32, ptr, ptr, ptr, ptr, i32, ptr, ptr, ptr, ptr, i32, ptr, ptr, i64, ptr, ptr, ptr, i64 }
%struct.AVIOInterruptCB = type { ptr, ptr }

; Function Attrs: nounwind uwtable
define internal void @read_string(ptr noundef %0, ptr noundef %1, ptr noundef %2, i32 noundef %3) #0 {
  %5 = alloca ptr, align 8
  %6 = alloca ptr, align 8
  %7 = alloca ptr, align 8
  %8 = alloca i32, align 4
  %9 = alloca ptr, align 8
  %10 = alloca i32, align 4
  %11 = alloca i32, align 4
  store ptr %0, ptr %5, align 8, !tbaa !14
  store ptr %1, ptr %6, align 8, !tbaa !33
  store ptr %2, ptr %7, align 8, !tbaa !59
  store i32 %3, ptr %8, align 4, !tbaa !38
  call void @llvm.lifetime.start.p0(i64 8, ptr %9) #10
  %12 = load i32, ptr %8, align 4, !tbaa !38
  %13 = add i32 %12, 1
  %14 = zext i32 %13 to i64
  %15 = call noalias ptr @av_malloc(i64 noundef %14)
  store ptr %15, ptr %9, align 8, !tbaa !59
  call void @llvm.lifetime.start.p0(i64 4, ptr %10) #10
  %16 = load ptr, ptr %9, align 8, !tbaa !59
  %17 = icmp ne ptr %16, null
  br i1 %17, label %23, label %18

18:                                               ; preds = %4
  %19 = load ptr, ptr %6, align 8, !tbaa !33
  %20 = load i32, ptr %8, align 4, !tbaa !38
  %21 = zext i32 %20 to i64
  %22 = call i64 @avio_skip(ptr noundef %19, i64 noundef %21)
  store i32 1, ptr %11, align 4
  br label %48

23:                                               ; preds = %4
  %24 = load ptr, ptr %6, align 8, !tbaa !33
  %25 = load ptr, ptr %9, align 8, !tbaa !59
  %26 = load i32, ptr %8, align 4, !tbaa !38
  %27 = call i32 @avio_read(ptr noundef %24, ptr noundef %25, i32 noundef %26)
  store i32 %27, ptr %10, align 4, !tbaa !38
  %28 = load i32, ptr %10, align 4, !tbaa !38
  %29 = load i32, ptr %8, align 4, !tbaa !38
  %30 = icmp ne i32 %28, %29
  br i1 %30, label %36, label %31

31:                                               ; preds = %23
  %32 = load ptr, ptr %9, align 8, !tbaa !59
  %33 = getelementptr inbounds i8, ptr %32, i64 0
  %34 = load i8, ptr %33, align 1, !tbaa !13
  %35 = icmp ne i8 %34, 0
  br i1 %35, label %38, label %36

36:                                               ; preds = %31, %23
  %37 = load ptr, ptr %9, align 8, !tbaa !59
  call void @av_free(ptr noundef %37)
  store i32 1, ptr %11, align 4
  br label %48

38:                                               ; preds = %31
  %39 = load ptr, ptr %9, align 8, !tbaa !59
  %40 = load i32, ptr %8, align 4, !tbaa !38
  %41 = zext i32 %40 to i64
  %42 = getelementptr inbounds nuw i8, ptr %39, i64 %41
  store i8 0, ptr %42, align 1, !tbaa !13
  %43 = load ptr, ptr %5, align 8, !tbaa !14
  %44 = getelementptr inbounds nuw %struct.AVFormatContext, ptr %43, i32 0, i32 29
  %45 = load ptr, ptr %7, align 8, !tbaa !59
  %46 = load ptr, ptr %9, align 8, !tbaa !59
  %47 = call i32 @av_dict_set(ptr noundef %44, ptr noundef %45, ptr noundef %46, i32 noundef 8)
  store i32 0, ptr %11, align 4
  br label %48

48:                                               ; preds = %38, %36, %18
  call void @llvm.lifetime.end.p0(i64 4, ptr %10) #10
  call void @llvm.lifetime.end.p0(i64 8, ptr %9) #10
  %49 = load i32, ptr %11, align 4
  switch i32 %49, label %51 [
    i32 0, label %50
    i32 1, label %50
  ]

50:                                               ; preds = %48, %48
  ret void

51:                                               ; preds = %48
  unreachable
}