; Function Attrs: nounwind uwtable
define internal fastcc void @read_string(ptr noundef %0, ptr noundef %1, ptr noundef %2, i32 noundef %3) unnamed_addr #1 {
  %5 = add i32 %3, 1
  %6 = zext i32 %5 to i64
  %7 = tail call noalias ptr @av_malloc(i64 noundef %6) #11
  %.not = icmp eq ptr %7, null
  br i1 %.not, label %8, label %11

8:                                                ; preds = %4
  %9 = zext i32 %3 to i64
  %10 = tail call i64 @avio_skip(ptr noundef %1, i64 noundef %9) #11
  br label %21

11:                                               ; preds = %4
  %12 = tail call i32 @avio_read(ptr noundef %1, ptr noundef nonnull %7, i32 noundef %3) #11
  %.not16 = icmp eq i32 %12, %3
  br i1 %.not16, label %13, label %15

13:                                               ; preds = %11
  %14 = load i8, ptr %7, align 1, !tbaa !11
  %.not17 = icmp eq i8 %14, 0
  br i1 %.not17, label %15, label %16

15:                                               ; preds = %13, %11
  tail call void @av_free(ptr noundef nonnull %7) #11
  br label %21

16:                                               ; preds = %13
  %17 = zext i32 %3 to i64
  %18 = getelementptr inbounds nuw i8, ptr %7, i64 %17
  store i8 0, ptr %18, align 1, !tbaa !11
  %19 = getelementptr inbounds nuw i8, ptr %0, i64 192
  %20 = tail call i32 @av_dict_set(ptr noundef nonnull %19, ptr noundef %2, ptr noundef nonnull %7, i32 noundef 8) #11
  br label %21

21:                                               ; preds = %16, %15, %8
  ret void
}